target datalayout = "e-m:e-p270:32:32-p271:32:32-p272:64:64-i64:64-i128:128-f80:128-n8:16:32:64-S128"
target triple = "x86_64-pc-linux-gnu"

%struct.Vec_Int_t_ = type { i32, i32, ptr }
%struct.Abc_TgMan_t_ = type { ptr, i32, i32, i32, i32, i32, [16 x i8], [16 x i8], [16 x i8], [16 x i8], [16 x %struct.TiedGroup_], [16 x i8], [17 x i8], i32, [16 x i8], ptr }
%struct.TiedGroup_ = type { i8, i8 }

; Function Attrs: inlinehint nounwind uwtable
define internal void @Vec_IntClear(ptr noundef %0) #2 {
  %2 = alloca ptr, align 8
  store ptr %0, ptr %2, align 8, !tbaa !82
  %3 = load ptr, ptr %2, align 8, !tbaa !82
  %4 = getelementptr inbounds nuw %struct.Vec_Int_t_, ptr %3, i32 0, i32 1
  store i32 0, ptr %4, align 4, !tbaa !93
  ret void
}

; Function Attrs: nounwind uwtable
define i32 @Abc_TgExpendSymmetry(ptr noundef %0, ptr noundef %1) #0 {
  %3 = alloca ptr, align 8
  %4 = alloca ptr, align 8
  %5 = alloca i32, align 4
  %6 = alloca i32, align 4
  %7 = alloca i32, align 4
  %8 = alloca i32, align 4
  %9 = alloca ptr, align 8
  store ptr %0, ptr %3, align 8, !tbaa !116
  store ptr %1, ptr %4, align 8, !tbaa !49
  call void @llvm.lifetime.start.p0(i64 4, ptr %5) #12
  store i32 0, ptr %5, align 4, !tbaa !8
  call void @llvm.lifetime.start.p0(i64 4, ptr %6) #12
  call void @llvm.lifetime.start.p0(i64 4, ptr %7) #12
  call void @llvm.lifetime.start.p0(i64 4, ptr %8) #12
  call void @llvm.lifetime.start.p0(i64 8, ptr %9) #12
  %10 = load ptr, ptr %3, align 8, !tbaa !116
  %11 = getelementptr inbounds nuw %struct.Abc_TgMan_t_, ptr %10, i32 0, i32 6
  %12 = getelementptr inbounds [16 x i8], ptr %11, i64 0, i64 0
  store ptr %12, ptr %9, align 8, !tbaa !49
  store i32 0, ptr %6, align 4, !tbaa !8
  br label %13

13:                                               ; preds = %46, %2
  %14 = load i32, ptr %6, align 4, !tbaa !8
  %15 = load ptr, ptr %3, align 8, !tbaa !116
  %16 = getelementptr inbounds nuw %struct.Abc_TgMan_t_, ptr %15, i32 0, i32 2
  %17 = load i32, ptr %16, align 4, !tbaa !118
  %18 = icmp slt i32 %14, %17
  br i1 %18, label %19, label %49

19:                                               ; preds = %13
  %20 = load ptr, ptr %9, align 8, !tbaa !49
  %21 = load i32, ptr %6, align 4, !tbaa !8
  %22 = sext i32 %21 to i64
  %23 = getelementptr inbounds i8, ptr %20, i64 %22
  %24 = load i8, ptr %23, align 1, !tbaa !51
  %25 = sext i8 %24 to i32
  store i32 %25, ptr %7, align 4, !tbaa !8
  br label %26

26:                                               ; preds = %37, %19
  %27 = load i32, ptr %7, align 4, !tbaa !8
  %28 = icmp sge i32 %27, 0
  br i1 %28, label %29, label %45

29:                                               ; preds = %26
  %30 = load i32, ptr %7, align 4, !tbaa !8
  %31 = trunc i32 %30 to i8
  %32 = load ptr, ptr %4, align 8, !tbaa !49
  %33 = load i32, ptr %5, align 4, !tbaa !8
  %34 = add nsw i32 %33, 1
  store i32 %34, ptr %5, align 4, !tbaa !8
  %35 = sext i32 %33 to i64
  %36 = getelementptr inbounds i8, ptr %32, i64 %35
  store i8 %31, ptr %36, align 1, !tbaa !51
  br label %37

37:                                               ; preds = %29
  %38 = load ptr, ptr %3, align 8, !tbaa !116
  %39 = getelementptr inbounds nuw %struct.Abc_TgMan_t_, ptr %38, i32 0, i32 12
  %40 = load i32, ptr %7, align 4, !tbaa !8
  %41 = sext i32 %40 to i64
  %42 = getelementptr inbounds [17 x i8], ptr %39, i64 0, i64 %41
  %43 = load i8, ptr %42, align 1, !tbaa !51
  %44 = sext i8 %43 to i32
  store i32 %44, ptr %7, align 4, !tbaa !8
  br label %26, !llvm.loop !120

45:                                               ; preds = %26
  br label %46

46:                                               ; preds = %45
  %47 = load i32, ptr %6, align 4, !tbaa !8
  %48 = add nsw i32 %47, 1
  store i32 %48, ptr %6, align 4, !tbaa !8
  br label %13, !llvm.loop !121

49:                                               ; preds = %13
  %50 = load i32, ptr %5, align 4, !tbaa !8
  store i32 %50, ptr %8, align 4, !tbaa !8
  %51 = load ptr, ptr %3, align 8, !tbaa !116
  %52 = getelementptr inbounds nuw %struct.Abc_TgMan_t_, ptr %51, i32 0, i32 12
  %53 = load ptr, ptr %3, align 8, !tbaa !116
  %54 = getelementptr inbounds nuw %struct.Abc_TgMan_t_, ptr %53, i32 0, i32 1
  %55 = load i32, ptr %54, align 8, !tbaa !122
  %56 = sext i32 %55 to i64
  %57 = getelementptr inbounds [17 x i8], ptr %52, i64 0, i64 %56
  %58 = load i8, ptr %57, align 1, !tbaa !51
  %59 = sext i8 %58 to i32
  store i32 %59, ptr %7, align 4, !tbaa !8
  br label %60

60:                                               ; preds = %71, %49
  %61 = load i32, ptr %7, align 4, !tbaa !8
  %62 = icmp sge i32 %61, 0
  br i1 %62, label %63, label %79

63:                                               ; preds = %60
  %64 = load i32, ptr %7, align 4, !tbaa !8
  %65 = trunc i32 %64 to i8
  %66 = load ptr, ptr %4, align 8, !tbaa !49
  %67 = load i32, ptr %5, align 4, !tbaa !8
  %68 = add nsw i32 %67, 1
  store i32 %68, ptr %5, align 4, !tbaa !8
  %69 = sext i32 %67 to i64
  %70 = getelementptr inbounds i8, ptr %66, i64 %69
  store i8 %65, ptr %70, align 1, !tbaa !51
  br label %71

71:                                               ; preds = %63
  %72 = load ptr, ptr %3, align 8, !tbaa !116
  %73 = getelementptr inbounds nuw %struct.Abc_TgMan_t_, ptr %72, i32 0, i32 12
  %74 = load i32, ptr %7, align 4, !tbaa !8
  %75 = sext i32 %74 to i64
  %76 = getelementptr inbounds [17 x i8], ptr %73, i64 0, i64 %75
  %77 = load i8, ptr %76, align 1, !tbaa !51
  %78 = sext i8 %77 to i32
  store i32 %78, ptr %7, align 4, !tbaa !8
  br label %60, !llvm.loop !123

79:                                               ; preds = %60
  %80 = load i32, ptr %8, align 4, !tbaa !8
  call void @llvm.lifetime.end.p0(i64 8, ptr %9) #12
  call void @llvm.lifetime.end.p0(i64 4, ptr %8) #12
  call void @llvm.lifetime.end.p0(i64 4, ptr %7) #12
  call void @llvm.lifetime.end.p0(i64 4, ptr %6) #12
  call void @llvm.lifetime.end.p0(i64 4, ptr %5) #12
  ret i32 %80
}

; Function Attrs: nounwind uwtable
define internal void @Abc_TgResetGroup(ptr noundef %0) #0 {
  %2 = alloca ptr, align 8
  %3 = alloca i32, align 4
  %4 = alloca i32, align 4
  %5 = alloca ptr, align 8
  %6 = alloca [16 x i8], align 16
  %7 = alloca i32, align 4
  %8 = alloca i8, align 1
  store ptr %0, ptr %2, align 8, !tbaa !116
  call void @llvm.lifetime.start.p0(i64 4, ptr %3) #12
  call void @llvm.lifetime.start.p0(i64 4, ptr %4) #12
  call void @llvm.lifetime.start.p0(i64 8, ptr %5) #12
  %9 = load ptr, ptr %2, align 8, !tbaa !116
  %10 = getelementptr inbounds nuw %struct.Abc_TgMan_t_, ptr %9, i32 0, i32 6
  %11 = getelementptr inbounds [16 x i8], ptr %10, i64 0, i64 0
  store ptr %11, ptr %5, align 8, !tbaa !49
  call void @llvm.lifetime.start.p0(i64 16, ptr %6) #12
  call void @llvm.lifetime.start.p0(i64 4, ptr %7) #12
  %12 = load ptr, ptr %2, align 8, !tbaa !116
  %13 = getelementptr inbounds nuw %struct.Abc_TgMan_t_, ptr %12, i32 0, i32 2
  %14 = load i32, ptr %13, align 4, !tbaa !118
  store i32 %14, ptr %7, align 4, !tbaa !8
  store i32 1, ptr %3, align 4, !tbaa !8
  br label %15

15:                                               ; preds = %62, %1
  %16 = load i32, ptr %3, align 4, !tbaa !8
  %17 = load i32, ptr %7, align 4, !tbaa !8
  %18 = icmp slt i32 %16, %17
  br i1 %18, label %19, label %65

19:                                               ; preds = %15
  call void @llvm.lifetime.start.p0(i64 1, ptr %8) #12
  %20 = load ptr, ptr %5, align 8, !tbaa !49
  %21 = load i32, ptr %3, align 4, !tbaa !8
  %22 = sext i32 %21 to i64
  %23 = getelementptr inbounds i8, ptr %20, i64 %22
  %24 = load i8, ptr %23, align 1, !tbaa !51
  store i8 %24, ptr %8, align 1, !tbaa !51
  %25 = load i32, ptr %3, align 4, !tbaa !8
  store i32 %25, ptr %4, align 4, !tbaa !8
  br label %26

26:                                               ; preds = %53, %19
  %27 = load i32, ptr %4, align 4, !tbaa !8
  %28 = icmp sgt i32 %27, 0
  br i1 %28, label %29, label %40

29:                                               ; preds = %26
  %30 = load ptr, ptr %5, align 8, !tbaa !49
  %31 = load i32, ptr %4, align 4, !tbaa !8
  %32 = sub nsw i32 %31, 1
  %33 = sext i32 %32 to i64
  %34 = getelementptr inbounds i8, ptr %30, i64 %33
  %35 = load i8, ptr %34, align 1, !tbaa !51
  %36 = sext i8 %35 to i32
  %37 = load i8, ptr %8, align 1, !tbaa !51
  %38 = sext i8 %37 to i32
  %39 = icmp sgt i32 %36, %38
  br label %40

40:                                               ; preds = %29, %26
  %41 = phi i1 [ false, %26 ], [ %39, %29 ]
  br i1 %41, label %42, label %56

42:                                               ; preds = %40
  %43 = load ptr, ptr %5, align 8, !tbaa !49
  %44 = load i32, ptr %4, align 4, !tbaa !8
  %45 = sub nsw i32 %44, 1
  %46 = sext i32 %45 to i64
  %47 = getelementptr inbounds i8, ptr %43, i64 %46
  %48 = load i8, ptr %47, align 1, !tbaa !51
  %49 = load ptr, ptr %5, align 8, !tbaa !49
  %50 = load i32, ptr %4, align 4, !tbaa !8
  %51 = sext i32 %50 to i64
  %52 = getelementptr inbounds i8, ptr %49, i64 %51
  store i8 %48, ptr %52, align 1, !tbaa !51
  br label %53

53:                                               ; preds = %42
  %54 = load i32, ptr %4, align 4, !tbaa !8
  %55 = add nsw i32 %54, -1
  store i32 %55, ptr %4, align 4, !tbaa !8
  br label %26, !llvm.loop !161

56:                                               ; preds = %40
  %57 = load i8, ptr %8, align 1, !tbaa !51
  %58 = load ptr, ptr %5, align 8, !tbaa !49
  %59 = load i32, ptr %4, align 4, !tbaa !8
  %60 = sext i32 %59 to i64
  %61 = getelementptr inbounds i8, ptr %58, i64 %60
  store i8 %57, ptr %61, align 1, !tbaa !51
  call void @llvm.lifetime.end.p0(i64 1, ptr %8) #12
  br label %62

62:                                               ; preds = %56
  %63 = load i32, ptr %3, align 4, !tbaa !8
  %64 = add nsw i32 %63, 1
  store i32 %64, ptr %3, align 4, !tbaa !8
  br label %15, !llvm.loop !162

65:                                               ; preds = %15
  %66 = load ptr, ptr %2, align 8, !tbaa !116
  %67 = getelementptr inbounds [16 x i8], ptr %6, i64 0, i64 0
  %68 = call i32 @Abc_TgExpendSymmetry(ptr noundef %66, ptr noundef %67)
  %69 = load ptr, ptr %2, align 8, !tbaa !116
  %70 = getelementptr inbounds [16 x i8], ptr %6, i64 0, i64 0
  call void @Abc_TgImplementPerm(ptr noundef %69, ptr noundef %70)
  %71 = load ptr, ptr %2, align 8, !tbaa !116
  %72 = getelementptr inbounds nuw %struct.Abc_TgMan_t_, ptr %71, i32 0, i32 5
  store i32 0, ptr %72, align 8, !tbaa !126
  %73 = load ptr, ptr %2, align 8, !tbaa !116
  %74 = getelementptr inbounds nuw %struct.Abc_TgMan_t_, ptr %73, i32 0, i32 3
  store i32 1, ptr %74, align 8, !tbaa !127
  %75 = load i32, ptr %7, align 4, !tbaa !8
  %76 = trunc i32 %75 to i8
  %77 = load ptr, ptr %2, align 8, !tbaa !116
  %78 = getelementptr inbounds nuw %struct.Abc_TgMan_t_, ptr %77, i32 0, i32 10
  %79 = getelementptr inbounds [16 x %struct.TiedGroup_], ptr %78, i64 0, i64 0
  %80 = getelementptr inbounds nuw %struct.TiedGroup_, ptr %79, i32 0, i32 1
  store i8 %76, ptr %80, align 1, !tbaa !130
  %81 = load ptr, ptr %2, align 8, !tbaa !116
  %82 = getelementptr inbounds nuw %struct.Abc_TgMan_t_, ptr %81, i32 0, i32 15
  %83 = load ptr, ptr %82, align 8, !tbaa !133
  call void @Vec_IntClear(ptr noundef %83)
  call void @llvm.lifetime.end.p0(i64 4, ptr %7) #12
  call void @llvm.lifetime.end.p0(i64 16, ptr %6) #12
  call void @llvm.lifetime.end.p0(i64 8, ptr %5) #12
  call void @llvm.lifetime.end.p0(i64 4, ptr %4) #12
  call void @llvm.lifetime.end.p0(i64 4, ptr %3) #12
  ret void
}