; Function Attrs: nofree norecurse nosync nounwind memory(readwrite, inaccessiblemem: none) uwtable
define internal fastcc void @Abc_TgResetGroup(ptr noundef nonnull captures(none) %0) unnamed_addr #7 {
  %2 = alloca [16 x i8], align 16
  %3 = getelementptr inbounds nuw i8, ptr %0, i64 28
  call void @llvm.lifetime.start.p0(i64 16, ptr nonnull %2) #21
  %4 = getelementptr inbounds nuw i8, ptr %0, i64 12
  %5 = load i32, ptr %4, align 4, !tbaa !111
  %6 = icmp sgt i32 %5, 1
  br i1 %6, label %.lr.ph.preheader, label %._crit_edge

.lr.ph.preheader:                                 ; preds = %1
  %wide.trip.count = zext nneg i32 %5 to i64
  br label %.lr.ph

.lr.ph:                                           ; preds = %.lr.ph.preheader, %.critedge
  %indvars.iv = phi i64 [ 1, %.lr.ph.preheader ], [ %indvars.iv.next, %.critedge ]
  %7 = getelementptr inbounds nuw i8, ptr %3, i64 %indvars.iv
  %8 = load i8, ptr %7, align 1, !tbaa !43
  %9 = trunc nuw nsw i64 %indvars.iv to i32
  br label %10

10:                                               ; preds = %.lr.ph, %16
  %.02628 = phi i32 [ %9, %.lr.ph ], [ %17, %16 ]
  %11 = zext nneg i32 %.02628 to i64
  %12 = getelementptr i8, ptr %3, i64 %11
  %13 = getelementptr i8, ptr %12, i64 -1
  %14 = load i8, ptr %13, align 1, !tbaa !43
  %15 = icmp sgt i8 %14, %8
  br i1 %15, label %16, label %.critedge

16:                                               ; preds = %10
  store i8 %14, ptr %12, align 1, !tbaa !43
  %17 = add nsw i32 %.02628, -1
  %18 = icmp sgt i32 %.02628, 1
  br i1 %18, label %10, label %.critedge, !llvm.loop !175

.critedge:                                        ; preds = %16, %10
  %.026.lcssa = phi i32 [ 0, %16 ], [ %.02628, %10 ]
  %19 = sext i32 %.026.lcssa to i64
  %20 = getelementptr inbounds i8, ptr %3, i64 %19
  store i8 %8, ptr %20, align 1, !tbaa !43
  %indvars.iv.next = add nuw nsw i64 %indvars.iv, 1
  %exitcond.not = icmp eq i64 %indvars.iv.next, %wide.trip.count
  br i1 %exitcond.not, label %._crit_edge.loopexit, label %.lr.ph, !llvm.loop !176

._crit_edge.loopexit:                             ; preds = %.critedge
  %.pre = load i32, ptr %4, align 4, !tbaa !111
  br label %._crit_edge

._crit_edge:                                      ; preds = %._crit_edge.loopexit, %1
  %21 = phi i32 [ %.pre, %._crit_edge.loopexit ], [ %5, %1 ]
  %22 = icmp sgt i32 %21, 0
  br i1 %22, label %.lr.ph30.i, label %._crit_edge31.i

.lr.ph30.i:                                       ; preds = %._crit_edge
  %23 = getelementptr inbounds nuw i8, ptr %0, i64 140
  %24 = zext nneg i32 %21 to i64
  br label %25

25:                                               ; preds = %._crit_edge.i, %.lr.ph30.i
  %indvars.iv40.i = phi i64 [ 0, %.lr.ph30.i ], [ %indvars.iv.next41.i, %._crit_edge.i ]
  %.028.i = phi i32 [ 0, %.lr.ph30.i ], [ %.1.lcssa.i, %._crit_edge.i ]
  %26 = getelementptr inbounds nuw i8, ptr %3, i64 %indvars.iv40.i
  %.022.in24.i = load i8, ptr %26, align 1, !tbaa !43
  %27 = icmp sgt i8 %.022.in24.i, -1
  br i1 %27, label %.lr.ph.preheader.i, label %._crit_edge.i

.lr.ph.preheader.i:                               ; preds = %25
  %28 = sext i32 %.028.i to i64
  br label %.lr.ph.i

.lr.ph.i:                                         ; preds = %.lr.ph.i, %.lr.ph.preheader.i
  %indvars.iv.i = phi i64 [ %28, %.lr.ph.preheader.i ], [ %indvars.iv.next.i, %.lr.ph.i ]
  %.022.in26.i = phi i8 [ %.022.in24.i, %.lr.ph.preheader.i ], [ %.022.in.i, %.lr.ph.i ]
  %indvars.iv.next.i = add nsw i64 %indvars.iv.i, 1
  %29 = getelementptr inbounds i8, ptr %2, i64 %indvars.iv.i
  store i8 %.022.in26.i, ptr %29, align 1, !tbaa !43
  %30 = zext nneg i8 %.022.in26.i to i64
  %31 = getelementptr inbounds nuw [17 x i8], ptr %23, i64 0, i64 %30
  %.022.in.i = load i8, ptr %31, align 1, !tbaa !43
  %32 = icmp sgt i8 %.022.in.i, -1
  br i1 %32, label %.lr.ph.i, label %._crit_edge.loopexit.i, !llvm.loop !113

._crit_edge.loopexit.i:                           ; preds = %.lr.ph.i
  %33 = trunc nsw i64 %indvars.iv.next.i to i32
  br label %._crit_edge.i

._crit_edge.i:                                    ; preds = %._crit_edge.loopexit.i, %25
  %.1.lcssa.i = phi i32 [ %.028.i, %25 ], [ %33, %._crit_edge.loopexit.i ]
  %indvars.iv.next41.i = add nuw nsw i64 %indvars.iv40.i, 1
  %exitcond31.not = icmp eq i64 %indvars.iv.next41.i, %24
  br i1 %exitcond31.not, label %._crit_edge31.i.loopexit, label %25, !llvm.loop !114

._crit_edge31.i.loopexit:                         ; preds = %._crit_edge.i
  %34 = sext i32 %.1.lcssa.i to i64
  br label %._crit_edge31.i

._crit_edge31.i:                                  ; preds = %._crit_edge31.i.loopexit, %._crit_edge
  %.0.lcssa.i = phi i64 [ 0, %._crit_edge ], [ %34, %._crit_edge31.i.loopexit ]
  %35 = getelementptr inbounds nuw i8, ptr %0, i64 140
  %36 = getelementptr inbounds nuw i8, ptr %0, i64 8
  %37 = load i32, ptr %36, align 8, !tbaa !115
  %38 = sext i32 %37 to i64
  %.123.in.in33.i = getelementptr inbounds [17 x i8], ptr %35, i64 0, i64 %38
  %.123.in34.i = load i8, ptr %.123.in.in33.i, align 1, !tbaa !43
  %39 = icmp sgt i8 %.123.in34.i, -1
  br i1 %39, label %.lr.ph38.i, label %Abc_TgExpendSymmetry.exit

.lr.ph38.i:                                       ; preds = %._crit_edge31.i, %.lr.ph38.i
  %indvars.iv43.i = phi i64 [ %indvars.iv.next44.i, %.lr.ph38.i ], [ %.0.lcssa.i, %._crit_edge31.i ]
  %.123.in36.i = phi i8 [ %.123.in.i, %.lr.ph38.i ], [ %.123.in34.i, %._crit_edge31.i ]
  %indvars.iv.next44.i = add nsw i64 %indvars.iv43.i, 1
  %40 = getelementptr inbounds i8, ptr %2, i64 %indvars.iv43.i
  store i8 %.123.in36.i, ptr %40, align 1, !tbaa !43
  %41 = zext nneg i8 %.123.in36.i to i64
  %.123.in.in.i = getelementptr inbounds nuw [17 x i8], ptr %35, i64 0, i64 %41
  %.123.in.i = load i8, ptr %.123.in.in.i, align 1, !tbaa !43
  %42 = icmp sgt i8 %.123.in.i, -1
  br i1 %42, label %.lr.ph38.i, label %Abc_TgExpendSymmetry.exit, !llvm.loop !116

Abc_TgExpendSymmetry.exit:                        ; preds = %.lr.ph38.i, %._crit_edge31.i
  call fastcc void @Abc_TgImplementPerm(ptr noundef %0, ptr noundef nonnull %2)
  %43 = getelementptr inbounds nuw i8, ptr %0, i64 24
  store i32 0, ptr %43, align 8, !tbaa !119
  %44 = getelementptr inbounds nuw i8, ptr %0, i64 16
  store i32 1, ptr %44, align 8, !tbaa !120
  %45 = trunc i32 %5 to i8
  %46 = getelementptr inbounds nuw i8, ptr %0, i64 93
  store i8 %45, ptr %46, align 1, !tbaa !123
  %47 = getelementptr inbounds nuw i8, ptr %0, i64 184
  %48 = load ptr, ptr %47, align 8, !tbaa !126
  %49 = getelementptr inbounds nuw i8, ptr %48, i64 4
  store i32 0, ptr %49, align 4, !tbaa !81
  call void @llvm.lifetime.end.p0(i64 16, ptr nonnull %2) #21
  ret void
}